target datalayout = "e-m:e-p270:32:32-p271:32:32-p272:64:64-i64:64-i128:128-f80:128-n8:16:32:64-S128"
target triple = "x86_64-pc-linux-gnu"

%"class.std::__1::pmr::unsynchronized_pool_resource::__adhoc_pool" = type { ptr }
%"struct.std::__1::pmr::unsynchronized_pool_resource::__adhoc_pool::__chunk_footer" = type { ptr, ptr, i64 }

; Function Attrs: mustprogress uwtable
define linkonce_odr hidden void @_ZNSt3__13pmr15memory_resource10deallocateB8ne210000EPvmm(ptr noundef nonnull align 8 dereferenceable(8) %0, ptr noundef nonnull %1, i64 noundef %2, i64 noundef %3) #5 comdat align 2 {
  %5 = alloca ptr, align 8
  %6 = alloca ptr, align 8
  %7 = alloca i64, align 8
  %8 = alloca i64, align 8
  store ptr %0, ptr %5, align 8, !tbaa !4
  store ptr %1, ptr %6, align 8, !tbaa !29
  store i64 %2, ptr %7, align 8, !tbaa !30
  store i64 %3, ptr %8, align 8, !tbaa !30
  %9 = load ptr, ptr %5, align 8
  %10 = load ptr, ptr %6, align 8, !tbaa !29
  %11 = load i64, ptr %7, align 8, !tbaa !30
  %12 = load i64, ptr %8, align 8, !tbaa !30
  %13 = load ptr, ptr %9, align 8, !tbaa !31
  %14 = getelementptr inbounds ptr, ptr %13, i64 3
  %15 = load ptr, ptr %14, align 8
  call void %15(ptr noundef nonnull align 8 dereferenceable(8) %9, ptr noundef %10, i64 noundef %11, i64 noundef %12)
  ret void
}

; Function Attrs: mustprogress nounwind uwtable
define linkonce_odr hidden noundef i64 @_ZNSt3__13pmr28unsynchronized_pool_resource12__adhoc_pool14__chunk_footer17__allocation_sizeEv(ptr noundef nonnull align 8 dereferenceable(24) %0) #0 comdat align 2 {
  %2 = alloca ptr, align 8
  store ptr %0, ptr %2, align 8, !tbaa !24
  %3 = load ptr, ptr %2, align 8
  %4 = getelementptr inbounds nuw %"struct.std::__1::pmr::unsynchronized_pool_resource::__adhoc_pool::__chunk_footer", ptr %3, i32 0, i32 1
  %5 = load ptr, ptr %4, align 8, !tbaa !25
  %6 = ptrtoint ptr %3 to i64
  %7 = ptrtoint ptr %5 to i64
  %8 = sub i64 %6, %7
  %9 = add i64 %8, 24
  ret i64 %9
}

; Function Attrs: mustprogress uwtable
define dso_local void @_ZNSt3__13pmr28unsynchronized_pool_resource12__adhoc_pool13__release_ptrEPNS0_15memory_resourceE(ptr noundef nonnull align 8 dereferenceable(8) %0, ptr noundef %1) #5 align 2 {
  %3 = alloca ptr, align 8
  %4 = alloca ptr, align 8
  %5 = alloca ptr, align 8
  store ptr %0, ptr %3, align 8, !tbaa !15
  store ptr %1, ptr %4, align 8, !tbaa !4
  %6 = load ptr, ptr %3, align 8
  br label %7

7:                                                ; preds = %11, %2
  %8 = getelementptr inbounds nuw %"class.std::__1::pmr::unsynchronized_pool_resource::__adhoc_pool", ptr %6, i32 0, i32 0
  %9 = load ptr, ptr %8, align 8, !tbaa !17
  %10 = icmp ne ptr %9, null
  br i1 %10, label %11, label %30

11:                                               ; preds = %7
  call void @llvm.lifetime.start.p0(i64 8, ptr %5) #3
  %12 = getelementptr inbounds nuw %"class.std::__1::pmr::unsynchronized_pool_resource::__adhoc_pool", ptr %6, i32 0, i32 0
  %13 = load ptr, ptr %12, align 8, !tbaa !17
  %14 = getelementptr inbounds nuw %"struct.std::__1::pmr::unsynchronized_pool_resource::__adhoc_pool::__chunk_footer", ptr %13, i32 0, i32 0
  %15 = load ptr, ptr %14, align 8, !tbaa !20
  store ptr %15, ptr %5, align 8, !tbaa !24
  %16 = load ptr, ptr %4, align 8, !tbaa !4
  %17 = getelementptr inbounds nuw %"class.std::__1::pmr::unsynchronized_pool_resource::__adhoc_pool", ptr %6, i32 0, i32 0
  %18 = load ptr, ptr %17, align 8, !tbaa !17
  %19 = getelementptr inbounds nuw %"struct.std::__1::pmr::unsynchronized_pool_resource::__adhoc_pool::__chunk_footer", ptr %18, i32 0, i32 1
  %20 = load ptr, ptr %19, align 8, !tbaa !25
  %21 = getelementptr inbounds nuw %"class.std::__1::pmr::unsynchronized_pool_resource::__adhoc_pool", ptr %6, i32 0, i32 0
  %22 = load ptr, ptr %21, align 8, !tbaa !17
  %23 = call noundef i64 @_ZNSt3__13pmr28unsynchronized_pool_resource12__adhoc_pool14__chunk_footer17__allocation_sizeEv(ptr noundef nonnull align 8 dereferenceable(24) %22)
  %24 = getelementptr inbounds nuw %"class.std::__1::pmr::unsynchronized_pool_resource::__adhoc_pool", ptr %6, i32 0, i32 0
  %25 = load ptr, ptr %24, align 8, !tbaa !17
  %26 = getelementptr inbounds nuw %"struct.std::__1::pmr::unsynchronized_pool_resource::__adhoc_pool::__chunk_footer", ptr %25, i32 0, i32 2
  %27 = load i64, ptr %26, align 8, !tbaa !26
  call void @_ZNSt3__13pmr15memory_resource10deallocateB8ne210000EPvmm(ptr noundef nonnull align 8 dereferenceable(8) %16, ptr noundef %20, i64 noundef %23, i64 noundef %27)
  %28 = load ptr, ptr %5, align 8, !tbaa !24
  %29 = getelementptr inbounds nuw %"class.std::__1::pmr::unsynchronized_pool_resource::__adhoc_pool", ptr %6, i32 0, i32 0
  store ptr %28, ptr %29, align 8, !tbaa !17
  call void @llvm.lifetime.end.p0(i64 8, ptr %5) #3
  br label %7, !llvm.loop !27

30:                                               ; preds = %7
  ret void
}