; Function Attrs: mustprogress uwtable
define dso_local void @_ZNSt3__13pmr28unsynchronized_pool_resource12__adhoc_pool13__release_ptrEPNS0_15memory_resourceE(ptr noundef nonnull align 8 captures(none) dereferenceable(8) %0, ptr noundef %1) local_unnamed_addr #4 align 2 {
  %.pr = load ptr, ptr %0, align 8, !tbaa !4
  %.not3 = icmp eq ptr %.pr, null
  br i1 %.not3, label %._crit_edge, label %.lr.ph

.lr.ph:                                           ; preds = %2, %.lr.ph
  %3 = phi ptr [ %4, %.lr.ph ], [ %.pr, %2 ]
  %4 = load ptr, ptr %3, align 8, !tbaa !10
  %5 = getelementptr inbounds nuw i8, ptr %3, i64 8
  %6 = load ptr, ptr %5, align 8, !tbaa !14
  %7 = ptrtoint ptr %3 to i64
  %8 = ptrtoint ptr %6 to i64
  %9 = add i64 %7, 24
  %10 = sub i64 %9, %8
  %11 = getelementptr inbounds nuw i8, ptr %3, i64 16
  %12 = load i64, ptr %11, align 8, !tbaa !15
  %13 = load ptr, ptr %1, align 8, !tbaa !16
  %14 = getelementptr inbounds nuw i8, ptr %13, i64 24
  %15 = load ptr, ptr %14, align 8
  tail call void %15(ptr noundef nonnull align 8 dereferenceable(8) %1, ptr noundef nonnull %6, i64 noundef %10, i64 noundef %12)
  store ptr %4, ptr %0, align 8, !tbaa !4
  %.not = icmp eq ptr %4, null
  br i1 %.not, label %._crit_edge, label %.lr.ph, !llvm.loop !18

._crit_edge:                                      ; preds = %.lr.ph, %2
  ret void
}